target datalayout = "e-m:e-p270:32:32-p271:32:32-p272:64:64-i64:64-i128:128-f80:128-n8:16:32:64-S128"
target triple = "x86_64-pc-linux-gnu"

; Function Attrs: mustprogress nounwind uwtable
define dso_local noundef i32 @_ZN5cmsys11SystemTools7StrucmpEPKcS2_(ptr noundef %0, ptr noundef %1) #4 align 2 {
  %3 = alloca ptr, align 8
  %4 = alloca ptr, align 8
  %5 = alloca i32, align 4
  %6 = alloca i32, align 4
  store ptr %0, ptr %3, align 8, !tbaa !13
  store ptr %1, ptr %4, align 8, !tbaa !13
  call void @llvm.lifetime.start.p0(i64 4, ptr %5) #1
  call void @llvm.lifetime.start.p0(i64 4, ptr %6) #1
  br label %7

7:                                                ; preds = %25, %2
  %8 = load ptr, ptr %3, align 8, !tbaa !13
  %9 = getelementptr inbounds nuw i8, ptr %8, i32 1
  store ptr %9, ptr %3, align 8, !tbaa !13
  %10 = load i8, ptr %8, align 1, !tbaa !16
  %11 = sext i8 %10 to i32
  %12 = call i32 @tolower(i32 noundef %11) #24
  store i32 %12, ptr %5, align 4, !tbaa !41
  %13 = load ptr, ptr %4, align 8, !tbaa !13
  %14 = getelementptr inbounds nuw i8, ptr %13, i32 1
  store ptr %14, ptr %4, align 8, !tbaa !13
  %15 = load i8, ptr %13, align 1, !tbaa !16
  %16 = sext i8 %15 to i32
  %17 = call i32 @tolower(i32 noundef %16) #24
  store i32 %17, ptr %6, align 4, !tbaa !41
  br label %18

18:                                               ; preds = %7
  %19 = load i32, ptr %5, align 4, !tbaa !41
  %20 = load i32, ptr %6, align 4, !tbaa !41
  %21 = icmp eq i32 %19, %20
  br i1 %21, label %22, label %25

22:                                               ; preds = %18
  %23 = load i32, ptr %5, align 4, !tbaa !41
  %24 = icmp ne i32 %23, 0
  br label %25

25:                                               ; preds = %22, %18
  %26 = phi i1 [ false, %18 ], [ %24, %22 ]
  br i1 %26, label %7, label %27, !llvm.loop !136

27:                                               ; preds = %25
  %28 = load i32, ptr %5, align 4, !tbaa !41
  %29 = load i32, ptr %6, align 4, !tbaa !41
  %30 = sub nsw i32 %28, %29
  call void @llvm.lifetime.end.p0(i64 4, ptr %6) #1
  call void @llvm.lifetime.end.p0(i64 4, ptr %5) #1
  ret i32 %30
}