; Function Attrs: mustprogress nofree nounwind willreturn memory(read) uwtable
define dso_local noundef i32 @_ZN5cmsys11SystemTools7StrucmpEPKcS2_(ptr noundef readonly captures(none) %0, ptr noundef readonly captures(none) %1) local_unnamed_addr #8 align 2 {
  br label %3

3:                                                ; preds = %3, %2
  %.06 = phi ptr [ %1, %2 ], [ %8, %3 ]
  %.0 = phi ptr [ %0, %2 ], [ %4, %3 ]
  %4 = getelementptr inbounds nuw i8, ptr %.0, i64 1
  %5 = load i8, ptr %.0, align 1, !tbaa !20
  %6 = sext i8 %5 to i32
  %7 = tail call i32 @tolower(i32 noundef %6) #43
  %8 = getelementptr inbounds nuw i8, ptr %.06, i64 1
  %9 = load i8, ptr %.06, align 1, !tbaa !20
  %10 = sext i8 %9 to i32
  %11 = tail call i32 @tolower(i32 noundef %10) #43
  %12 = icmp eq i32 %7, %11
  %13 = icmp ne i32 %7, 0
  %14 = and i1 %13, %12
  br i1 %14, label %3, label %15, !llvm.loop !134

15:                                               ; preds = %3
  %16 = sub nsw i32 %7, %11
  ret i32 %16
}